target datalayout = "e-m:e-p270:32:32-p271:32:32-p272:64:64-i64:64-i128:128-f80:128-n8:16:32:64-S128"
target triple = "x86_64-unknown-linux-gnu"

%"class.std::__cxx11::basic_string" = type { %"struct.std::__cxx11::basic_string<char>::_Alloc_hider", i64, %union.anon }
%"struct.std::__cxx11::basic_string<char>::_Alloc_hider" = type { ptr }
%union.anon = type { i64, [8 x i8] }
%"class.grpc_core::Timestamp" = type { i64 }
%struct.gpr_timespec = type { i64, i32, i32 }

@.str = private unnamed_addr constant [135 x i8] c"generated/home/dtcxzyw/WorkSpace/Projects/compilers/llvm-opt-benchmark/bench/grpc/grpc/src/core/lib/iomgr/socket_utils_common_posix.cc\00", align 1
@_ZZL13create_socketP19grpc_socket_factoryiiiE4prev = internal global { i64 } zeroinitializer, align 8

; Function Attrs: mustprogress nounwind uwtable
define linkonce_odr noundef i32 @_ZStanSt12memory_orderSt23__memory_order_modifier(i32 noundef %__m, i32 noundef %__mod) #5 comdat {
entry:
  %__m.addr = alloca i32, align 4
  %__mod.addr = alloca i32, align 4
  store i32 %__m, ptr %__m.addr, align 4
  store i32 %__mod, ptr %__mod.addr, align 4
  %0 = load i32, ptr %__m.addr, align 4
  %1 = load i32, ptr %__mod.addr, align 4
  %and = and i32 %0, %1
  ret i32 %and
}

; Function Attrs: mustprogress nounwind uwtable
define linkonce_odr noundef i64 @_ZNSt13__atomic_baseImEaSEm(ptr noundef nonnull align 8 dereferenceable(8) %this, i64 noundef %__i) #5 comdat align 2 {
entry:
  %this.addr.i = alloca ptr, align 8
  %__i.addr.i = alloca i64, align 8
  %__m.addr.i = alloca i32, align 4
  %__b.i = alloca i32, align 4
  %.atomictmp.i = alloca i64, align 8
  %this.addr = alloca ptr, align 8
  %__i.addr = alloca i64, align 8
  store ptr %this, ptr %this.addr, align 8
  store i64 %__i, ptr %__i.addr, align 8
  %this1 = load ptr, ptr %this.addr, align 8
  %0 = load i64, ptr %__i.addr, align 8
  store ptr %this1, ptr %this.addr.i, align 8
  store i64 %0, ptr %__i.addr.i, align 8
  store i32 5, ptr %__m.addr.i, align 4
  %this1.i = load ptr, ptr %this.addr.i, align 8
  %1 = load i32, ptr %__m.addr.i, align 4
  %call.i = call noundef i32 @_ZStanSt12memory_orderSt23__memory_order_modifier(i32 noundef %1, i32 noundef 65535)
  store i32 %call.i, ptr %__b.i, align 4
  %2 = load i32, ptr %__m.addr.i, align 4
  %3 = load i64, ptr %__i.addr.i, align 8
  store i64 %3, ptr %.atomictmp.i, align 8
  switch i32 %2, label %monotonic.i [
    i32 3, label %release.i
    i32 5, label %seqcst.i
  ]

monotonic.i:                                      ; preds = %entry
  %4 = load i64, ptr %.atomictmp.i, align 8
  store atomic i64 %4, ptr %this1.i monotonic, align 8
  br label %_ZNSt13__atomic_baseImE5storeEmSt12memory_order.exit

release.i:                                        ; preds = %entry
  %5 = load i64, ptr %.atomictmp.i, align 8
  store atomic i64 %5, ptr %this1.i release, align 8
  br label %_ZNSt13__atomic_baseImE5storeEmSt12memory_order.exit

seqcst.i:                                         ; preds = %entry
  %6 = load i64, ptr %.atomictmp.i, align 8
  store atomic i64 %6, ptr %this1.i seq_cst, align 8
  br label %_ZNSt13__atomic_baseImE5storeEmSt12memory_order.exit

_ZNSt13__atomic_baseImE5storeEmSt12memory_order.exit: ; preds = %seqcst.i, %release.i, %monotonic.i
  %7 = load i64, ptr %__i.addr, align 8
  ret i64 %7
}

; Function Attrs: mustprogress nounwind uwtable
define linkonce_odr noundef i64 @_ZNKSt13__atomic_baseImEcvmEv(ptr noundef nonnull align 8 dereferenceable(8) %this) #5 comdat align 2 {
entry:
  %this.addr.i = alloca ptr, align 8
  %__m.addr.i = alloca i32, align 4
  %__b.i = alloca i32, align 4
  %atomic-temp.i = alloca i64, align 8
  %this.addr = alloca ptr, align 8
  store ptr %this, ptr %this.addr, align 8
  %this1 = load ptr, ptr %this.addr, align 8
  store ptr %this1, ptr %this.addr.i, align 8
  store i32 5, ptr %__m.addr.i, align 4
  %this1.i = load ptr, ptr %this.addr.i, align 8
  %0 = load i32, ptr %__m.addr.i, align 4
  %call.i = call noundef i32 @_ZStanSt12memory_orderSt23__memory_order_modifier(i32 noundef %0, i32 noundef 65535)
  store i32 %call.i, ptr %__b.i, align 4
  %1 = load i32, ptr %__m.addr.i, align 4
  switch i32 %1, label %monotonic.i [
    i32 1, label %acquire.i
    i32 2, label %acquire.i
    i32 5, label %seqcst.i
  ]

monotonic.i:                                      ; preds = %entry
  %2 = load atomic i64, ptr %this1.i monotonic, align 8
  store i64 %2, ptr %atomic-temp.i, align 8
  br label %_ZNKSt13__atomic_baseImE4loadESt12memory_order.exit

acquire.i:                                        ; preds = %entry, %entry
  %3 = load atomic i64, ptr %this1.i acquire, align 8
  store i64 %3, ptr %atomic-temp.i, align 8
  br label %_ZNKSt13__atomic_baseImE4loadESt12memory_order.exit

seqcst.i:                                         ; preds = %entry
  %4 = load atomic i64, ptr %this1.i seq_cst, align 8
  store i64 %4, ptr %atomic-temp.i, align 8
  br label %_ZNKSt13__atomic_baseImE4loadESt12memory_order.exit

_ZNKSt13__atomic_baseImE4loadESt12memory_order.exit: ; preds = %seqcst.i, %acquire.i, %monotonic.i
  %5 = load i64, ptr %atomic-temp.i, align 8
  ret i64 %5
}

; Function Attrs: mustprogress nounwind uwtable
define linkonce_odr noundef i64 @_ZNK9grpc_core9Timestamp32milliseconds_after_process_epochEv(ptr noundef nonnull align 8 dereferenceable(8) %this) #5 comdat align 2 {
entry:
  %this.addr = alloca ptr, align 8
  store ptr %this, ptr %this.addr, align 8
  %this1 = load ptr, ptr %this.addr, align 8
  %millis_ = getelementptr inbounds %"class.grpc_core::Timestamp", ptr %this1, i32 0, i32 0
  %0 = load i64, ptr %millis_, align 8
  ret i64 %0
}

; Function Attrs: mustprogress uwtable
define internal noundef i32 @_ZL13create_socketP19grpc_socket_factoryiii(ptr noundef %factory, i32 noundef %domain, i32 noundef %type, i32 noundef %protocol) #4 personality ptr @__gxx_personality_v0 {
entry:
  %factory.addr = alloca ptr, align 8
  %domain.addr = alloca i32, align 4
  %type.addr = alloca i32, align 4
  %protocol.addr = alloca i32, align 4
  %res = alloca i32, align 4
  %saved_errno = alloca i32, align 4
  %now = alloca i64, align 8
  %ref.tmp = alloca %"class.grpc_core::Timestamp", align 8
  %agg.tmp = alloca %struct.gpr_timespec, align 8
  %ref.tmp15 = alloca %"class.std::__cxx11::basic_string", align 8
  %exn.slot = alloca ptr, align 8
  %ehselector.slot = alloca i32, align 4
  store ptr %factory, ptr %factory.addr, align 8
  store i32 %domain, ptr %domain.addr, align 4
  store i32 %type, ptr %type.addr, align 4
  store i32 %protocol, ptr %protocol.addr, align 4
  %0 = load ptr, ptr %factory.addr, align 8
  %cmp = icmp ne ptr %0, null
  br i1 %cmp, label %cond.true, label %cond.false

cond.true:                                        ; preds = %entry
  %1 = load ptr, ptr %factory.addr, align 8
  %2 = load i32, ptr %domain.addr, align 4
  %3 = load i32, ptr %type.addr, align 4
  %4 = load i32, ptr %protocol.addr, align 4
  %call = call noundef i32 @_Z26grpc_socket_factory_socketP19grpc_socket_factoryiii(ptr noundef %1, i32 noundef %2, i32 noundef %3, i32 noundef %4)
  br label %cond.end

cond.false:                                       ; preds = %entry
  %5 = load i32, ptr %domain.addr, align 4
  %6 = load i32, ptr %type.addr, align 4
  %7 = load i32, ptr %protocol.addr, align 4
  %call1 = call i32 @socket(i32 noundef %5, i32 noundef %6, i32 noundef %7) #3
  br label %cond.end

cond.end:                                         ; preds = %cond.false, %cond.true
  %cond = phi i32 [ %call, %cond.true ], [ %call1, %cond.false ]
  store i32 %cond, ptr %res, align 4
  %8 = load i32, ptr %res, align 4
  %cmp2 = icmp slt i32 %8, 0
  br i1 %cmp2, label %land.lhs.true, label %if.end19

land.lhs.true:                                    ; preds = %cond.end
  %call3 = call ptr @__errno_location() #11
  %9 = load i32, ptr %call3, align 4
  %cmp4 = icmp eq i32 %9, 24
  br i1 %cmp4, label %if.then, label %if.end19

if.then:                                          ; preds = %land.lhs.true
  %call5 = call ptr @__errno_location() #11
  %10 = load i32, ptr %call5, align 4
  store i32 %10, ptr %saved_errno, align 4
  br label %do.body

do.body:                                          ; preds = %if.then
  %call6 = call { i64, i64 } @gpr_now(i32 noundef 0)
  %11 = getelementptr inbounds { i64, i64 }, ptr %agg.tmp, i32 0, i32 0
  %12 = extractvalue { i64, i64 } %call6, 0
  store i64 %12, ptr %11, align 8
  %13 = getelementptr inbounds { i64, i64 }, ptr %agg.tmp, i32 0, i32 1
  %14 = extractvalue { i64, i64 } %call6, 1
  store i64 %14, ptr %13, align 8
  %15 = getelementptr inbounds { i64, i64 }, ptr %agg.tmp, i32 0, i32 0
  %16 = load i64, ptr %15, align 8
  %17 = getelementptr inbounds { i64, i64 }, ptr %agg.tmp, i32 0, i32 1
  %18 = load i64, ptr %17, align 8
  %call7 = call i64 @_ZN9grpc_core9Timestamp21FromTimespecRoundDownE12gpr_timespec(i64 %16, i64 %18)
  %coerce.dive = getelementptr inbounds %"class.grpc_core::Timestamp", ptr %ref.tmp, i32 0, i32 0
  store i64 %call7, ptr %coerce.dive, align 8
  %call8 = call noundef i64 @_ZNK9grpc_core9Timestamp32milliseconds_after_process_epochEv(ptr noundef nonnull align 8 dereferenceable(8) %ref.tmp)
  store i64 %call8, ptr %now, align 8
  %call9 = call noundef i64 @_ZNKSt13__atomic_baseImEcvmEv(ptr noundef nonnull align 8 dereferenceable(8) @_ZZL13create_socketP19grpc_socket_factoryiiiE4prev) #3
  %cmp10 = icmp eq i64 %call9, 0
  br i1 %cmp10, label %if.then13, label %lor.lhs.false

lor.lhs.false:                                    ; preds = %do.body
  %19 = load i64, ptr %now, align 8
  %call11 = call noundef i64 @_ZNKSt13__atomic_baseImEcvmEv(ptr noundef nonnull align 8 dereferenceable(8) @_ZZL13create_socketP19grpc_socket_factoryiiiE4prev) #3
  %sub = sub i64 %19, %call11
  %cmp12 = icmp ugt i64 %sub, 10000
  br i1 %cmp12, label %if.then13, label %if.end

if.then13:                                        ; preds = %lor.lhs.false, %do.body
  %20 = load i64, ptr %now, align 8
  %call14 = call noundef i64 @_ZNSt13__atomic_baseImEaSEm(ptr noundef nonnull align 8 dereferenceable(8) @_ZZL13create_socketP19grpc_socket_factoryiiiE4prev, i64 noundef %20) #3
  %21 = load i32, ptr %domain.addr, align 4
  %22 = load i32, ptr %type.addr, align 4
  %23 = load i32, ptr %protocol.addr, align 4
  %24 = load i32, ptr %res, align 4
  %call16 = call ptr @__errno_location() #11
  %25 = load i32, ptr %call16, align 4
  call void @_ZN9grpc_core8StrErrorB5cxx11Ei(ptr sret(%"class.std::__cxx11::basic_string") align 8 %ref.tmp15, i32 noundef %25)
  %call17 = call noundef ptr @_ZNKSt7__cxx1112basic_stringIcSt11char_traitsIcESaIcEE5c_strEv(ptr noundef nonnull align 8 dereferenceable(32) %ref.tmp15) #3
  invoke void (ptr, i32, i32, ptr, ...) @gpr_log(ptr noundef @.str, i32 noundef 490, i32 noundef 2, ptr noundef @.str.34, i32 noundef %21, i32 noundef %22, i32 noundef %23, i32 noundef %24, ptr noundef %call17)
          to label %invoke.cont unwind label %lpad

invoke.cont:                                      ; preds = %if.then13
  call void @_ZNSt7__cxx1112basic_stringIcSt11char_traitsIcESaIcEED1Ev(ptr noundef nonnull align 8 dereferenceable(32) %ref.tmp15) #3
  br label %if.end

lpad:                                             ; preds = %if.then13
  %26 = landingpad { ptr, i32 }
          cleanup
  %27 = extractvalue { ptr, i32 } %26, 0
  store ptr %27, ptr %exn.slot, align 8
  %28 = extractvalue { ptr, i32 } %26, 1
  store i32 %28, ptr %ehselector.slot, align 4
  call void @_ZNSt7__cxx1112basic_stringIcSt11char_traitsIcESaIcEED1Ev(ptr noundef nonnull align 8 dereferenceable(32) %ref.tmp15) #3
  br label %eh.resume

if.end:                                           ; preds = %invoke.cont, %lor.lhs.false
  br label %do.end

do.end:                                           ; preds = %if.end
  %29 = load i32, ptr %saved_errno, align 4
  %call18 = call ptr @__errno_location() #11
  store i32 %29, ptr %call18, align 4
  br label %if.end19

if.end19:                                         ; preds = %do.end, %land.lhs.true, %cond.end
  %30 = load i32, ptr %res, align 4
  ret i32 %30

eh.resume:                                        ; preds = %lpad
  %exn = load ptr, ptr %exn.slot, align 8
  %sel = load i32, ptr %ehselector.slot, align 4
  %lpad.val = insertvalue { ptr, i32 } poison, ptr %exn, 0
  %lpad.val20 = insertvalue { ptr, i32 } %lpad.val, i32 %sel, 1
  resume { ptr, i32 } %lpad.val20
}