; Function Attrs: mustprogress uwtable
define internal fastcc noundef i32 @_ZL13create_socketP19grpc_socket_factoryiii(ptr noundef %factory, i32 noundef %domain, i32 noundef %type, i32 noundef %protocol) unnamed_addr #3 personality ptr @__gxx_personality_v0 {
entry:
  %ref.tmp15 = alloca %"class.std::__cxx11::basic_string", align 8
  %cmp.not = icmp eq ptr %factory, null
  br i1 %cmp.not, label %cond.false, label %cond.true

cond.true:                                        ; preds = %entry
  %call = tail call noundef i32 @_Z26grpc_socket_factory_socketP19grpc_socket_factoryiii(ptr noundef nonnull %factory, i32 noundef %domain, i32 noundef %type, i32 noundef %protocol)
  br label %cond.end

cond.false:                                       ; preds = %entry
  %call1 = tail call i32 @socket(i32 noundef %domain, i32 noundef %type, i32 noundef %protocol) #16
  br label %cond.end

cond.end:                                         ; preds = %cond.false, %cond.true
  %cond = phi i32 [ %call, %cond.true ], [ %call1, %cond.false ]
  %cmp2 = icmp slt i32 %cond, 0
  br i1 %cmp2, label %land.lhs.true, label %if.end19

land.lhs.true:                                    ; preds = %cond.end
  %call3 = tail call ptr @__errno_location() #17
  %0 = load i32, ptr %call3, align 4
  %cmp4 = icmp eq i32 %0, 24
  br i1 %cmp4, label %if.then, label %if.end19

if.then:                                          ; preds = %land.lhs.true
  %call6 = tail call { i64, i64 } @gpr_now(i32 noundef 0)
  %1 = extractvalue { i64, i64 } %call6, 0
  %2 = extractvalue { i64, i64 } %call6, 1
  %call7 = tail call i64 @_ZN9grpc_core9Timestamp21FromTimespecRoundDownE12gpr_timespec(i64 %1, i64 %2)
  %3 = load atomic i64, ptr @_ZZL13create_socketP19grpc_socket_factoryiiiE4prev.0 seq_cst, align 8
  %cmp10 = icmp eq i64 %3, 0
  br i1 %cmp10, label %if.then13, label %lor.lhs.false

lor.lhs.false:                                    ; preds = %if.then
  %4 = load atomic i64, ptr @_ZZL13create_socketP19grpc_socket_factoryiiiE4prev.0 seq_cst, align 8
  %sub = sub i64 %call7, %4
  %cmp12 = icmp ugt i64 %sub, 10000
  br i1 %cmp12, label %if.then13, label %do.end

if.then13:                                        ; preds = %lor.lhs.false, %if.then
  store atomic i64 %call7, ptr @_ZZL13create_socketP19grpc_socket_factoryiiiE4prev.0 seq_cst, align 8
  %5 = load i32, ptr %call3, align 4
  call void @_ZN9grpc_core8StrErrorB5cxx11Ei(ptr nonnull sret(%"class.std::__cxx11::basic_string") align 8 %ref.tmp15, i32 noundef %5)
  %call17 = call noundef ptr @_ZNKSt7__cxx1112basic_stringIcSt11char_traitsIcESaIcEE5c_strEv(ptr noundef nonnull align 8 dereferenceable(32) %ref.tmp15) #16
  invoke void (ptr, i32, i32, ptr, ...) @gpr_log(ptr noundef nonnull @.str, i32 noundef 490, i32 noundef 2, ptr noundef nonnull @.str.34, i32 noundef %domain, i32 noundef %type, i32 noundef %protocol, i32 noundef %cond, ptr noundef %call17)
          to label %invoke.cont unwind label %lpad

invoke.cont:                                      ; preds = %if.then13
  call void @_ZNSt7__cxx1112basic_stringIcSt11char_traitsIcESaIcEED1Ev(ptr noundef nonnull align 8 dereferenceable(32) %ref.tmp15) #16
  br label %do.end

lpad:                                             ; preds = %if.then13
  %6 = landingpad { ptr, i32 }
          cleanup
  call void @_ZNSt7__cxx1112basic_stringIcSt11char_traitsIcESaIcEED1Ev(ptr noundef nonnull align 8 dereferenceable(32) %ref.tmp15) #16
  resume { ptr, i32 } %6

do.end:                                           ; preds = %lor.lhs.false, %invoke.cont
  store i32 24, ptr %call3, align 4
  br label %if.end19

if.end19:                                         ; preds = %do.end, %land.lhs.true, %cond.end
  ret i32 %cond
}